target datalayout = "e-m:e-p270:32:32-p271:32:32-p272:64:64-i64:64-i128:128-f80:128-n8:16:32:64-S128"
target triple = "x86_64-pc-linux-gnu"

%union.anon = type { i64 }
%struct.pct_info = type { i64, i64, double, i32 }

@.str = private unnamed_addr constant [43 x i8] c"percentile value %g is not between 0 and 1\00", align 1
@.str.1 = private unnamed_addr constant [17 x i8] c"orderedsetaggs.c\00", align 1
@__func__.setup_pct_info = private unnamed_addr constant [15 x i8] c"setup_pct_info\00", align 1

; Function Attrs: inlinehint nounwind uwtable
define internal i64 @DatumGetInt64(i64 noundef %0) #2 {
  %2 = alloca i64, align 8
  store i64 %0, ptr %2, align 8
  %3 = load i64, ptr %2, align 8
  ret i64 %3
}

; Function Attrs: inlinehint nounwind uwtable
define internal double @DatumGetFloat8(i64 noundef %0) #2 {
  %2 = alloca i64, align 8
  %3 = alloca %union.anon, align 8
  store i64 %0, ptr %2, align 8
  call void @llvm.lifetime.start.p0(i64 8, ptr %3) #8
  %4 = load i64, ptr %2, align 8
  %5 = call i64 @DatumGetInt64(i64 noundef %4)
  store i64 %5, ptr %3, align 8
  %6 = load double, ptr %3, align 8
  call void @llvm.lifetime.end.p0(i64 8, ptr %3) #8
  ret double %6
}

; Function Attrs: nounwind uwtable
define internal ptr @setup_pct_info(i32 noundef %0, ptr noundef %1, ptr noundef %2, i64 noundef %3, i1 noundef zeroext %4) #0 {
  %6 = alloca i32, align 4
  %7 = alloca ptr, align 8
  %8 = alloca ptr, align 8
  %9 = alloca i64, align 8
  %10 = alloca i8, align 1
  %11 = alloca ptr, align 8
  %12 = alloca i32, align 4
  %13 = alloca double, align 8
  %14 = alloca i64, align 8
  store i32 %0, ptr %6, align 4
  store ptr %1, ptr %7, align 8
  store ptr %2, ptr %8, align 8
  store i64 %3, ptr %9, align 8
  %15 = zext i1 %4 to i8
  store i8 %15, ptr %10, align 1
  call void @llvm.lifetime.start.p0(i64 8, ptr %11) #8
  call void @llvm.lifetime.start.p0(i64 4, ptr %12) #8
  %16 = load i32, ptr %6, align 4
  %17 = sext i32 %16 to i64
  %18 = mul i64 %17, 32
  %19 = call ptr @palloc(i64 noundef %18)
  store ptr %19, ptr %11, align 8
  store i32 0, ptr %12, align 4
  br label %20

20:                                               ; preds = %161, %5
  %21 = load i32, ptr %12, align 4
  %22 = load i32, ptr %6, align 4
  %23 = icmp slt i32 %21, %22
  br i1 %23, label %24, label %164

24:                                               ; preds = %20
  %25 = load i32, ptr %12, align 4
  %26 = load ptr, ptr %11, align 8
  %27 = load i32, ptr %12, align 4
  %28 = sext i32 %27 to i64
  %29 = getelementptr inbounds %struct.pct_info, ptr %26, i64 %28
  %30 = getelementptr inbounds nuw %struct.pct_info, ptr %29, i32 0, i32 3
  store i32 %25, ptr %30, align 8
  %31 = load ptr, ptr %8, align 8
  %32 = load i32, ptr %12, align 4
  %33 = sext i32 %32 to i64
  %34 = getelementptr inbounds i8, ptr %31, i64 %33
  %35 = load i8, ptr %34, align 1, !range !4, !noundef !5
  %36 = trunc i8 %35 to i1
  br i1 %36, label %37, label %53

37:                                               ; preds = %24
  %38 = load ptr, ptr %11, align 8
  %39 = load i32, ptr %12, align 4
  %40 = sext i32 %39 to i64
  %41 = getelementptr inbounds %struct.pct_info, ptr %38, i64 %40
  %42 = getelementptr inbounds nuw %struct.pct_info, ptr %41, i32 0, i32 0
  store i64 0, ptr %42, align 8
  %43 = load ptr, ptr %11, align 8
  %44 = load i32, ptr %12, align 4
  %45 = sext i32 %44 to i64
  %46 = getelementptr inbounds %struct.pct_info, ptr %43, i64 %45
  %47 = getelementptr inbounds nuw %struct.pct_info, ptr %46, i32 0, i32 1
  store i64 0, ptr %47, align 8
  %48 = load ptr, ptr %11, align 8
  %49 = load i32, ptr %12, align 4
  %50 = sext i32 %49 to i64
  %51 = getelementptr inbounds %struct.pct_info, ptr %48, i64 %50
  %52 = getelementptr inbounds nuw %struct.pct_info, ptr %51, i32 0, i32 2
  store double 0.000000e+00, ptr %52, align 8
  br label %160

53:                                               ; preds = %24
  call void @llvm.lifetime.start.p0(i64 8, ptr %13) #8
  %54 = load ptr, ptr %7, align 8
  %55 = load i32, ptr %12, align 4
  %56 = sext i32 %55 to i64
  %57 = getelementptr inbounds i64, ptr %54, i64 %56
  %58 = load i64, ptr %57, align 8
  %59 = call double @DatumGetFloat8(i64 noundef %58)
  store double %59, ptr %13, align 8
  %60 = load double, ptr %13, align 8
  %61 = fcmp olt double %60, 0.000000e+00
  br i1 %61, label %68, label %62

62:                                               ; preds = %53
  %63 = load double, ptr %13, align 8
  %64 = fcmp ogt double %63, 1.000000e+00
  br i1 %64, label %68, label %65

65:                                               ; preds = %62
  %66 = load double, ptr %13, align 8
  %67 = call i1 @llvm.is.fpclass.f64(double %66, i32 3)
  br i1 %67, label %68, label %81

68:                                               ; preds = %65, %62, %53
  br label %69

69:                                               ; preds = %68
  br i1 true, label %70, label %72

70:                                               ; preds = %69
  %71 = call zeroext i1 @errstart_cold(i32 noundef 21, ptr noundef null) #9
  br i1 %71, label %74, label %78

72:                                               ; preds = %69
  %73 = call zeroext i1 @errstart(i32 noundef 21, ptr noundef null)
  br i1 %73, label %74, label %78

74:                                               ; preds = %72, %70
  %75 = call i32 @errcode(i32 noundef 50331778)
  %76 = load double, ptr %13, align 8
  %77 = call i32 (ptr, ...) @errmsg(ptr noundef @.str, double noundef %76)
  call void @errfinish(ptr noundef @.str.1, i32 noundef 692, ptr noundef @__func__.setup_pct_info)
  br label %78

78:                                               ; preds = %74, %72, %70
  unreachable

79:                                               ; No predecessors!
  br label %80

80:                                               ; preds = %79
  br label %81

81:                                               ; preds = %80, %65
  %82 = load i8, ptr %10, align 1, !range !4, !noundef !5
  %83 = trunc i8 %82 to i1
  br i1 %83, label %84, label %128

84:                                               ; preds = %81
  %85 = load double, ptr %13, align 8
  %86 = load i64, ptr %9, align 8
  %87 = sub i64 %86, 1
  %88 = sitofp i64 %87 to double
  %89 = fmul double %85, %88
  %90 = call double @llvm.floor.f64(double %89)
  %91 = fadd double 1.000000e+00, %90
  %92 = fptosi double %91 to i64
  %93 = load ptr, ptr %11, align 8
  %94 = load i32, ptr %12, align 4
  %95 = sext i32 %94 to i64
  %96 = getelementptr inbounds %struct.pct_info, ptr %93, i64 %95
  %97 = getelementptr inbounds nuw %struct.pct_info, ptr %96, i32 0, i32 0
  store i64 %92, ptr %97, align 8
  %98 = load double, ptr %13, align 8
  %99 = load i64, ptr %9, align 8
  %100 = sub i64 %99, 1
  %101 = sitofp i64 %100 to double
  %102 = fmul double %98, %101
  %103 = call double @llvm.ceil.f64(double %102)
  %104 = fadd double 1.000000e+00, %103
  %105 = fptosi double %104 to i64
  %106 = load ptr, ptr %11, align 8
  %107 = load i32, ptr %12, align 4
  %108 = sext i32 %107 to i64
  %109 = getelementptr inbounds %struct.pct_info, ptr %106, i64 %108
  %110 = getelementptr inbounds nuw %struct.pct_info, ptr %109, i32 0, i32 1
  store i64 %105, ptr %110, align 8
  %111 = load double, ptr %13, align 8
  %112 = load i64, ptr %9, align 8
  %113 = sub i64 %112, 1
  %114 = sitofp i64 %113 to double
  %115 = load double, ptr %13, align 8
  %116 = load i64, ptr %9, align 8
  %117 = sub i64 %116, 1
  %118 = sitofp i64 %117 to double
  %119 = fmul double %115, %118
  %120 = call double @llvm.floor.f64(double %119)
  %121 = fneg double %120
  %122 = call double @llvm.fmuladd.f64(double %111, double %114, double %121)
  %123 = load ptr, ptr %11, align 8
  %124 = load i32, ptr %12, align 4
  %125 = sext i32 %124 to i64
  %126 = getelementptr inbounds %struct.pct_info, ptr %123, i64 %125
  %127 = getelementptr inbounds nuw %struct.pct_info, ptr %126, i32 0, i32 2
  store double %122, ptr %127, align 8
  br label %159

128:                                              ; preds = %81
  call void @llvm.lifetime.start.p0(i64 8, ptr %14) #8
  %129 = load double, ptr %13, align 8
  %130 = load i64, ptr %9, align 8
  %131 = sitofp i64 %130 to double
  %132 = fmul double %129, %131
  %133 = call double @llvm.ceil.f64(double %132)
  %134 = fptosi double %133 to i64
  store i64 %134, ptr %14, align 8
  %135 = load i64, ptr %14, align 8
  %136 = icmp sgt i64 1, %135
  br i1 %136, label %137, label %138

137:                                              ; preds = %128
  br label %140

138:                                              ; preds = %128
  %139 = load i64, ptr %14, align 8
  br label %140

140:                                              ; preds = %138, %137
  %141 = phi i64 [ 1, %137 ], [ %139, %138 ]
  store i64 %141, ptr %14, align 8
  %142 = load i64, ptr %14, align 8
  %143 = load ptr, ptr %11, align 8
  %144 = load i32, ptr %12, align 4
  %145 = sext i32 %144 to i64
  %146 = getelementptr inbounds %struct.pct_info, ptr %143, i64 %145
  %147 = getelementptr inbounds nuw %struct.pct_info, ptr %146, i32 0, i32 0
  store i64 %142, ptr %147, align 8
  %148 = load i64, ptr %14, align 8
  %149 = load ptr, ptr %11, align 8
  %150 = load i32, ptr %12, align 4
  %151 = sext i32 %150 to i64
  %152 = getelementptr inbounds %struct.pct_info, ptr %149, i64 %151
  %153 = getelementptr inbounds nuw %struct.pct_info, ptr %152, i32 0, i32 1
  store i64 %148, ptr %153, align 8
  %154 = load ptr, ptr %11, align 8
  %155 = load i32, ptr %12, align 4
  %156 = sext i32 %155 to i64
  %157 = getelementptr inbounds %struct.pct_info, ptr %154, i64 %156
  %158 = getelementptr inbounds nuw %struct.pct_info, ptr %157, i32 0, i32 2
  store double 0.000000e+00, ptr %158, align 8
  call void @llvm.lifetime.end.p0(i64 8, ptr %14) #8
  br label %159

159:                                              ; preds = %140, %84
  call void @llvm.lifetime.end.p0(i64 8, ptr %13) #8
  br label %160

160:                                              ; preds = %159, %37
  br label %161

161:                                              ; preds = %160
  %162 = load i32, ptr %12, align 4
  %163 = add i32 %162, 1
  store i32 %163, ptr %12, align 4
  br label %20, !llvm.loop !12

164:                                              ; preds = %20
  %165 = load ptr, ptr %11, align 8
  %166 = load i32, ptr %6, align 4
  %167 = sext i32 %166 to i64
  call void @pg_qsort(ptr noundef %165, i64 noundef %167, i64 noundef 32, ptr noundef @pct_info_cmp)
  %168 = load ptr, ptr %11, align 8
  call void @llvm.lifetime.end.p0(i64 4, ptr %12) #8
  call void @llvm.lifetime.end.p0(i64 8, ptr %11) #8
  ret ptr %168
}