; Function Attrs: nounwind uwtable
define internal fastcc ptr @setup_pct_info(i32 noundef range(i32 1, 0) %0, ptr noundef readonly captures(none) %1, ptr noundef readonly captures(none) %2, i64 noundef %3, i1 noundef zeroext %4) unnamed_addr #0 {
  %6 = sext i32 %0 to i64
  %7 = shl nsw i64 %6, 5
  %8 = tail call ptr @palloc(i64 noundef %7) #10
  %9 = icmp sgt i32 %0, 0
  br i1 %9, label %.lr.ph, label %._crit_edge

.lr.ph:                                           ; preds = %5
  %10 = sitofp i64 %3 to double
  %11 = add i64 %3, -1
  %12 = sitofp i64 %11 to double
  %wide.trip.count61 = zext nneg i32 %0 to i64
  br i1 %4, label %.lr.ph.split.us, label %.lr.ph.split

.lr.ph.split.us:                                  ; preds = %.lr.ph, %37
  %indvars.iv58 = phi i64 [ %indvars.iv.next59, %37 ], [ 0, %.lr.ph ]
  %13 = getelementptr inbounds nuw %struct.pct_info, ptr %8, i64 %indvars.iv58
  %14 = getelementptr inbounds nuw i8, ptr %13, i64 24
  %15 = trunc nuw nsw i64 %indvars.iv58 to i32
  store i32 %15, ptr %14, align 8
  %16 = getelementptr inbounds nuw i8, ptr %2, i64 %indvars.iv58
  %17 = load i8, ptr %16, align 1, !range !4, !noundef !5
  %18 = trunc nuw i8 %17 to i1
  br i1 %18, label %36, label %19

19:                                               ; preds = %.lr.ph.split.us
  %20 = getelementptr inbounds nuw i64, ptr %1, i64 %indvars.iv58
  %21 = load double, ptr %20, align 8
  %22 = fcmp ogt double %21, 1.000000e+00
  %23 = fcmp ult double %21, 0.000000e+00
  %or.cond52.us = or i1 %23, %22
  br i1 %or.cond52.us, label %.split.us, label %24

24:                                               ; preds = %19
  %25 = fmul double %21, %12
  %26 = tail call double @llvm.floor.f64(double %25)
  %27 = fadd double %26, 1.000000e+00
  %28 = fptosi double %27 to i64
  store i64 %28, ptr %13, align 8
  %29 = tail call double @llvm.ceil.f64(double %25)
  %30 = fadd double %29, 1.000000e+00
  %31 = fptosi double %30 to i64
  %32 = getelementptr inbounds nuw i8, ptr %13, i64 8
  store i64 %31, ptr %32, align 8
  %33 = fneg double %26
  %34 = tail call double @llvm.fmuladd.f64(double %21, double %12, double %33)
  %35 = getelementptr inbounds nuw i8, ptr %13, i64 16
  store double %34, ptr %35, align 8
  br label %37

36:                                               ; preds = %.lr.ph.split.us
  tail call void @llvm.memset.p0.i64(ptr noundef nonnull align 8 dereferenceable(24) %13, i8 0, i64 24, i1 false)
  br label %37

37:                                               ; preds = %36, %24
  %indvars.iv.next59 = add nuw nsw i64 %indvars.iv58, 1
  %exitcond62.not = icmp eq i64 %indvars.iv.next59, %wide.trip.count61
  br i1 %exitcond62.not, label %._crit_edge, label %.lr.ph.split.us, !llvm.loop !12

.lr.ph.split:                                     ; preds = %.lr.ph, %60
  %indvars.iv = phi i64 [ %indvars.iv.next, %60 ], [ 0, %.lr.ph ]
  %38 = getelementptr inbounds nuw %struct.pct_info, ptr %8, i64 %indvars.iv
  %39 = getelementptr inbounds nuw i8, ptr %38, i64 24
  %40 = trunc nuw nsw i64 %indvars.iv to i32
  store i32 %40, ptr %39, align 8
  %41 = getelementptr inbounds nuw i8, ptr %2, i64 %indvars.iv
  %42 = load i8, ptr %41, align 1, !range !4, !noundef !5
  %43 = trunc nuw i8 %42 to i1
  br i1 %43, label %44, label %45

44:                                               ; preds = %.lr.ph.split
  tail call void @llvm.memset.p0.i64(ptr noundef nonnull align 8 dereferenceable(24) %38, i8 0, i64 24, i1 false)
  br label %60

45:                                               ; preds = %.lr.ph.split
  %46 = getelementptr inbounds nuw i64, ptr %1, i64 %indvars.iv
  %47 = load double, ptr %46, align 8
  %48 = fcmp ogt double %47, 1.000000e+00
  %49 = fcmp ult double %47, 0.000000e+00
  %or.cond52 = or i1 %49, %48
  br i1 %or.cond52, label %.split.us, label %53

.split.us:                                        ; preds = %45, %19
  %.us-phi = phi double [ %21, %19 ], [ %47, %45 ]
  %50 = tail call zeroext i1 @errstart_cold(i32 noundef 21, ptr noundef null) #11
  tail call void @llvm.assume(i1 %50)
  %51 = tail call i32 @errcode(i32 noundef 50331778) #10
  %52 = tail call i32 (ptr, ...) @errmsg(ptr noundef nonnull @.str, double noundef %.us-phi) #10
  tail call void @errfinish(ptr noundef nonnull @.str.1, i32 noundef 692, ptr noundef nonnull @__func__.setup_pct_info) #10
  unreachable

53:                                               ; preds = %45
  %54 = fmul double %47, %10
  %55 = tail call double @llvm.ceil.f64(double %54)
  %56 = fptosi double %55 to i64
  %57 = tail call i64 @llvm.smax.i64(i64 %56, i64 1)
  store i64 %57, ptr %38, align 8
  %58 = getelementptr inbounds nuw i8, ptr %38, i64 8
  store i64 %57, ptr %58, align 8
  %59 = getelementptr inbounds nuw i8, ptr %38, i64 16
  store double 0.000000e+00, ptr %59, align 8
  br label %60

60:                                               ; preds = %53, %44
  %indvars.iv.next = add nuw nsw i64 %indvars.iv, 1
  %exitcond.not = icmp eq i64 %indvars.iv.next, %wide.trip.count61
  br i1 %exitcond.not, label %._crit_edge, label %.lr.ph.split, !llvm.loop !12

._crit_edge:                                      ; preds = %60, %37, %5
  tail call void @pg_qsort(ptr noundef %8, i64 noundef %6, i64 noundef 32, ptr noundef nonnull @pct_info_cmp) #10
  ret ptr %8
}